; Function Attrs: nounwind uwtable
define noalias noundef ptr @Wlc_NtkCollectOneType(ptr noundef readonly captures(none) %0, ptr noundef readonly captures(none) %1, i32 noundef %2, i32 noundef %3) local_unnamed_addr #0 {
  %5 = tail call noalias dereferenceable_or_null(16) ptr @malloc(i64 noundef 16) #25
  %6 = getelementptr inbounds nuw i8, ptr %5, i64 4
  store i32 0, ptr %6, align 4, !tbaa !26
  store i32 100, ptr %5, align 8, !tbaa !25
  %7 = tail call noalias dereferenceable_or_null(400) ptr @malloc(i64 noundef 400) #25
  %8 = getelementptr inbounds nuw i8, ptr %5, i64 8
  store ptr %7, ptr %8, align 8, !tbaa !3
  %9 = getelementptr i8, ptr %1, i64 4
  %.val1518 = load i32, ptr %9, align 4, !tbaa !26
  %10 = icmp sgt i32 %.val1518, 0
  br i1 %10, label %.lr.ph, label %.critedge

.lr.ph:                                           ; preds = %4
  %11 = getelementptr i8, ptr %1, i64 8
  %12 = getelementptr i8, ptr %0, i64 640
  br label %13

13:                                               ; preds = %.lr.ph, %45
  %.val1524 = phi i32 [ %.val1518, %.lr.ph ], [ %.val15, %45 ]
  %14 = phi ptr [ %7, %.lr.ph ], [ %.pre.i22, %45 ]
  %indvars.iv = phi i64 [ 0, %.lr.ph ], [ %indvars.iv.next, %45 ]
  %.val = load ptr, ptr %11, align 8, !tbaa !3
  %15 = getelementptr inbounds nuw i32, ptr %.val, i64 %indvars.iv
  %16 = load i32, ptr %15, align 4, !tbaa !10
  %.val13 = load ptr, ptr %12, align 8, !tbaa !11
  %17 = sext i32 %16 to i64
  %18 = getelementptr inbounds %struct.Wlc_Obj_t_, ptr %.val13, i64 %17
  %.val17 = load i16, ptr %18, align 8
  %19 = and i16 %.val17, 63
  %20 = zext nneg i16 %19 to i32
  %21 = icmp eq i32 %2, %20
  %22 = icmp eq i32 %3, %20
  %or.cond = or i1 %21, %22
  br i1 %or.cond, label %23, label %45

23:                                               ; preds = %13
  %24 = load i32, ptr %6, align 4, !tbaa !26
  %25 = load i32, ptr %5, align 8, !tbaa !25
  %26 = icmp eq i32 %24, %25
  br i1 %26, label %27, label %Vec_IntPush.exit

27:                                               ; preds = %23
  %28 = icmp slt i32 %24, 16
  br i1 %28, label %29, label %34

29:                                               ; preds = %27
  %.not9.i.i = icmp eq ptr %14, null
  br i1 %.not9.i.i, label %32, label %30

30:                                               ; preds = %29
  %31 = tail call dereferenceable_or_null(64) ptr @realloc(ptr noundef nonnull %14, i64 noundef 64) #27
  br label %Vec_IntPush.exit.sink.split

32:                                               ; preds = %29
  %33 = tail call noalias dereferenceable_or_null(64) ptr @malloc(i64 noundef 64) #25
  br label %Vec_IntPush.exit.sink.split

34:                                               ; preds = %27
  %35 = shl nuw nsw i32 %24, 1
  %.not9.i9.i = icmp eq ptr %14, null
  %36 = zext nneg i32 %35 to i64
  %37 = shl nuw nsw i64 %36, 2
  br i1 %.not9.i9.i, label %40, label %38

38:                                               ; preds = %34
  %39 = tail call ptr @realloc(ptr noundef nonnull %14, i64 noundef %37) #27
  br label %Vec_IntPush.exit.sink.split

40:                                               ; preds = %34
  %41 = tail call noalias ptr @malloc(i64 noundef %37) #25
  br label %Vec_IntPush.exit.sink.split

Vec_IntPush.exit.sink.split:                      ; preds = %38, %40, %30, %32
  %.sink26 = phi ptr [ %31, %30 ], [ %33, %32 ], [ %39, %38 ], [ %41, %40 ]
  %.sink = phi i32 [ 16, %30 ], [ 16, %32 ], [ %35, %38 ], [ %35, %40 ]
  store ptr %.sink26, ptr %8, align 8, !tbaa !3
  store i32 %.sink, ptr %5, align 8, !tbaa !25
  br label %Vec_IntPush.exit

Vec_IntPush.exit:                                 ; preds = %Vec_IntPush.exit.sink.split, %23
  %.pre.i23 = phi ptr [ %14, %23 ], [ %.sink26, %Vec_IntPush.exit.sink.split ]
  %42 = add nsw i32 %24, 1
  store i32 %42, ptr %6, align 4, !tbaa !26
  %43 = sext i32 %24 to i64
  %44 = getelementptr inbounds i32, ptr %.pre.i23, i64 %43
  store i32 %16, ptr %44, align 4, !tbaa !10
  %.val15.pre = load i32, ptr %9, align 4, !tbaa !26
  br label %45

45:                                               ; preds = %13, %Vec_IntPush.exit
  %.val15 = phi i32 [ %.val1524, %13 ], [ %.val15.pre, %Vec_IntPush.exit ]
  %.pre.i22 = phi ptr [ %14, %13 ], [ %.pre.i23, %Vec_IntPush.exit ]
  %indvars.iv.next = add nuw nsw i64 %indvars.iv, 1
  %46 = sext i32 %.val15 to i64
  %47 = icmp slt i64 %indvars.iv.next, %46
  br i1 %47, label %13, label %.critedge, !llvm.loop !165

.critedge:                                        ; preds = %45, %4
  ret ptr %5
}